; Function Attrs: nounwind uwtable
define noalias ptr @_emalloc_16() local_unnamed_addr #0 {
  %1 = load ptr, ptr @alloc_globals.0, align 8
  %2 = load i32, ptr %1, align 8
  %.not = icmp eq i32 %2, 0
  br i1 %.not, label %7, label %3

3:                                                ; preds = %0
  %4 = getelementptr inbounds i8, ptr %1, i64 360
  %5 = load ptr, ptr %4, align 8
  %6 = tail call ptr %5(i64 noundef 16) #35
  br label %zend_mm_alloc_small_slow.exit

7:                                                ; preds = %0
  %8 = getelementptr inbounds i8, ptr %1, i64 16
  %9 = load i64, ptr %8, align 8
  %10 = add i64 %9, 16
  %11 = getelementptr inbounds i8, ptr %1, i64 24
  %12 = load i64, ptr %11, align 8
  %. = tail call i64 @llvm.umax.i64(i64 %12, i64 %10)
  store i64 %10, ptr %8, align 8
  store i64 %., ptr %11, align 8
  %13 = getelementptr inbounds i8, ptr %1, i64 40
  %14 = load ptr, ptr %13, align 8
  %.not25 = icmp eq ptr %14, null
  br i1 %.not25, label %17, label %15

15:                                               ; preds = %7
  %16 = load ptr, ptr %14, align 8
  store ptr %16, ptr %13, align 8
  br label %zend_mm_alloc_small_slow.exit

17:                                               ; preds = %7
  %18 = tail call fastcc ptr @zend_mm_alloc_pages(ptr noundef nonnull %1, i32 noundef 1)
  %19 = icmp eq ptr %18, null
  br i1 %19, label %zend_mm_alloc_small_slow.exit, label %20

20:                                               ; preds = %17
  %21 = ptrtoint ptr %18 to i64
  %22 = and i64 %21, -2097152
  %23 = inttoptr i64 %22 to ptr
  %24 = lshr i64 %21, 12
  %25 = and i64 %24, 511
  %26 = getelementptr inbounds i8, ptr %23, i64 520
  %27 = getelementptr inbounds [512 x i32], ptr %26, i64 0, i64 %25
  store i32 -2147483647, ptr %27, align 4
  %.ptr26 = getelementptr inbounds i8, ptr %18, i64 16
  store ptr %.ptr26, ptr %13, align 8
  br label %28

28:                                               ; preds = %28, %20
  %.034.i.idx = phi i64 [ 16, %20 ], [ %.034.i.add, %28 ]
  %.034.i.ptr = getelementptr inbounds i8, ptr %18, i64 %.034.i.idx
  %.034.i.add = add nuw nsw i64 %.034.i.idx, 16
  %.ptr = getelementptr inbounds i8, ptr %18, i64 %.034.i.add
  store ptr %.ptr, ptr %.034.i.ptr, align 8
  %.not37.i = icmp eq i64 %.034.i.add, 4080
  br i1 %.not37.i, label %29, label %28

29:                                               ; preds = %28
  %30 = getelementptr inbounds i8, ptr %18, i64 4080
  store ptr null, ptr %30, align 8
  br label %zend_mm_alloc_small_slow.exit

zend_mm_alloc_small_slow.exit:                    ; preds = %29, %17, %15, %3
  %.0 = phi ptr [ %6, %3 ], [ %14, %15 ], [ null, %17 ], [ %18, %29 ]
  ret ptr %.0
}